target datalayout = "e-m:e-p270:32:32-p271:32:32-p272:64:64-i64:64-i128:128-f80:128-n8:16:32:64-S128"
target triple = "x86_64-pc-linux-gnu"

%struct.FT_BBox_ = type { i64, i64, i64, i64 }
%struct.CFF_IndexRec_ = type { ptr, i64, i32, i32, i8, i64, i64, ptr, ptr }
%struct.CFF_SubFontRec_ = type { %struct.CFF_FontRecDictRec_, %struct.CFF_PrivateRec_, %struct.CFF_BlendRec_, i32, ptr, ptr, ptr, i32, i32, %struct.CFF_IndexRec_, ptr, i32 }
%struct.CFF_FontRecDictRec_ = type { i32, i32, i32, i32, i32, i32, i8, i64, i64, i64, i32, i32, %struct.FT_Matrix_, i8, i64, %struct.FT_Vector_, i64, %struct.FT_BBox_, i64, i64, i64, i64, i64, i64, i64, i32, i32, i32, i64, i64, i64, i64, i64, i64, i64, i64, i32, i16, i16, i64, i32 }
%struct.FT_Matrix_ = type { i64, i64, i64, i64 }
%struct.FT_Vector_ = type { i64, i64 }
%struct.CFF_PrivateRec_ = type { i8, i8, i8, i8, [14 x i64], [10 x i64], [14 x i64], [10 x i64], i64, i64, i64, i64, i64, i8, i8, [13 x i64], [13 x i64], i8, i64, i32, i32, i64, i64, i64, i64, i64, i32, ptr }
%struct.CFF_BlendRec_ = type { i8, i8, ptr, i32, i32, ptr, i32, ptr }
%struct.PS_PrivateRec_ = type { i32, i32, i8, i8, i8, i8, [14 x i16], [10 x i16], [14 x i16], [10 x i16], i64, i32, i32, [1 x i16], [1 x i16], i8, i8, i8, i8, [13 x i16], [13 x i16], i64, i64, i64, [2 x i16] }

; Function Attrs: nounwind uwtable
define internal void @cff_make_private_dict(ptr noundef %0, ptr noundef %1) #0 {
  %3 = alloca ptr, align 8
  %4 = alloca ptr, align 8
  %5 = alloca ptr, align 8
  %6 = alloca i32, align 4
  %7 = alloca i32, align 4
  store ptr %0, ptr %3, align 8
  store ptr %1, ptr %4, align 8
  %8 = load ptr, ptr %3, align 8
  %9 = getelementptr inbounds %struct.CFF_SubFontRec_, ptr %8, i32 0, i32 1
  store ptr %9, ptr %5, align 8
  %10 = load ptr, ptr %4, align 8
  call void @llvm.memset.p0.i64(ptr align 8 %10, i8 0, i64 224, i1 false)
  %11 = load ptr, ptr %5, align 8
  %12 = getelementptr inbounds %struct.CFF_PrivateRec_, ptr %11, i32 0, i32 0
  %13 = load i8, ptr %12, align 8
  %14 = load ptr, ptr %4, align 8
  %15 = getelementptr inbounds %struct.PS_PrivateRec_, ptr %14, i32 0, i32 2
  store i8 %13, ptr %15, align 8
  %16 = zext i8 %13 to i32
  store i32 %16, ptr %7, align 4
  store i32 0, ptr %6, align 4
  br label %17

17:                                               ; preds = %36, %2
  %18 = load i32, ptr %6, align 4
  %19 = load i32, ptr %7, align 4
  %20 = icmp ult i32 %18, %19
  br i1 %20, label %21, label %39

21:                                               ; preds = %17
  %22 = load ptr, ptr %5, align 8
  %23 = getelementptr inbounds %struct.CFF_PrivateRec_, ptr %22, i32 0, i32 4
  %24 = load i32, ptr %6, align 4
  %25 = zext i32 %24 to i64
  %26 = getelementptr inbounds [14 x i64], ptr %23, i64 0, i64 %25
  %27 = load i64, ptr %26, align 8
  %28 = add nsw i64 %27, 32768
  %29 = ashr i64 %28, 16
  %30 = trunc i64 %29 to i16
  %31 = load ptr, ptr %4, align 8
  %32 = getelementptr inbounds %struct.PS_PrivateRec_, ptr %31, i32 0, i32 6
  %33 = load i32, ptr %6, align 4
  %34 = zext i32 %33 to i64
  %35 = getelementptr inbounds [14 x i16], ptr %32, i64 0, i64 %34
  store i16 %30, ptr %35, align 2
  br label %36

36:                                               ; preds = %21
  %37 = load i32, ptr %6, align 4
  %38 = add i32 %37, 1
  store i32 %38, ptr %6, align 4
  br label %17, !llvm.loop !36

39:                                               ; preds = %17
  %40 = load ptr, ptr %5, align 8
  %41 = getelementptr inbounds %struct.CFF_PrivateRec_, ptr %40, i32 0, i32 1
  %42 = load i8, ptr %41, align 1
  %43 = load ptr, ptr %4, align 8
  %44 = getelementptr inbounds %struct.PS_PrivateRec_, ptr %43, i32 0, i32 3
  store i8 %42, ptr %44, align 1
  %45 = zext i8 %42 to i32
  store i32 %45, ptr %7, align 4
  store i32 0, ptr %6, align 4
  br label %46

46:                                               ; preds = %65, %39
  %47 = load i32, ptr %6, align 4
  %48 = load i32, ptr %7, align 4
  %49 = icmp ult i32 %47, %48
  br i1 %49, label %50, label %68

50:                                               ; preds = %46
  %51 = load ptr, ptr %5, align 8
  %52 = getelementptr inbounds %struct.CFF_PrivateRec_, ptr %51, i32 0, i32 5
  %53 = load i32, ptr %6, align 4
  %54 = zext i32 %53 to i64
  %55 = getelementptr inbounds [10 x i64], ptr %52, i64 0, i64 %54
  %56 = load i64, ptr %55, align 8
  %57 = add nsw i64 %56, 32768
  %58 = ashr i64 %57, 16
  %59 = trunc i64 %58 to i16
  %60 = load ptr, ptr %4, align 8
  %61 = getelementptr inbounds %struct.PS_PrivateRec_, ptr %60, i32 0, i32 7
  %62 = load i32, ptr %6, align 4
  %63 = zext i32 %62 to i64
  %64 = getelementptr inbounds [10 x i16], ptr %61, i64 0, i64 %63
  store i16 %59, ptr %64, align 2
  br label %65

65:                                               ; preds = %50
  %66 = load i32, ptr %6, align 4
  %67 = add i32 %66, 1
  store i32 %67, ptr %6, align 4
  br label %46, !llvm.loop !37

68:                                               ; preds = %46
  %69 = load ptr, ptr %5, align 8
  %70 = getelementptr inbounds %struct.CFF_PrivateRec_, ptr %69, i32 0, i32 2
  %71 = load i8, ptr %70, align 2
  %72 = load ptr, ptr %4, align 8
  %73 = getelementptr inbounds %struct.PS_PrivateRec_, ptr %72, i32 0, i32 4
  store i8 %71, ptr %73, align 2
  %74 = zext i8 %71 to i32
  store i32 %74, ptr %7, align 4
  store i32 0, ptr %6, align 4
  br label %75

75:                                               ; preds = %94, %68
  %76 = load i32, ptr %6, align 4
  %77 = load i32, ptr %7, align 4
  %78 = icmp ult i32 %76, %77
  br i1 %78, label %79, label %97

79:                                               ; preds = %75
  %80 = load ptr, ptr %5, align 8
  %81 = getelementptr inbounds %struct.CFF_PrivateRec_, ptr %80, i32 0, i32 6
  %82 = load i32, ptr %6, align 4
  %83 = zext i32 %82 to i64
  %84 = getelementptr inbounds [14 x i64], ptr %81, i64 0, i64 %83
  %85 = load i64, ptr %84, align 8
  %86 = add nsw i64 %85, 32768
  %87 = ashr i64 %86, 16
  %88 = trunc i64 %87 to i16
  %89 = load ptr, ptr %4, align 8
  %90 = getelementptr inbounds %struct.PS_PrivateRec_, ptr %89, i32 0, i32 8
  %91 = load i32, ptr %6, align 4
  %92 = zext i32 %91 to i64
  %93 = getelementptr inbounds [14 x i16], ptr %90, i64 0, i64 %92
  store i16 %88, ptr %93, align 2
  br label %94

94:                                               ; preds = %79
  %95 = load i32, ptr %6, align 4
  %96 = add i32 %95, 1
  store i32 %96, ptr %6, align 4
  br label %75, !llvm.loop !38

97:                                               ; preds = %75
  %98 = load ptr, ptr %5, align 8
  %99 = getelementptr inbounds %struct.CFF_PrivateRec_, ptr %98, i32 0, i32 3
  %100 = load i8, ptr %99, align 1
  %101 = load ptr, ptr %4, align 8
  %102 = getelementptr inbounds %struct.PS_PrivateRec_, ptr %101, i32 0, i32 5
  store i8 %100, ptr %102, align 1
  %103 = zext i8 %100 to i32
  store i32 %103, ptr %7, align 4
  store i32 0, ptr %6, align 4
  br label %104

104:                                              ; preds = %123, %97
  %105 = load i32, ptr %6, align 4
  %106 = load i32, ptr %7, align 4
  %107 = icmp ult i32 %105, %106
  br i1 %107, label %108, label %126

108:                                              ; preds = %104
  %109 = load ptr, ptr %5, align 8
  %110 = getelementptr inbounds %struct.CFF_PrivateRec_, ptr %109, i32 0, i32 7
  %111 = load i32, ptr %6, align 4
  %112 = zext i32 %111 to i64
  %113 = getelementptr inbounds [10 x i64], ptr %110, i64 0, i64 %112
  %114 = load i64, ptr %113, align 8
  %115 = add nsw i64 %114, 32768
  %116 = ashr i64 %115, 16
  %117 = trunc i64 %116 to i16
  %118 = load ptr, ptr %4, align 8
  %119 = getelementptr inbounds %struct.PS_PrivateRec_, ptr %118, i32 0, i32 9
  %120 = load i32, ptr %6, align 4
  %121 = zext i32 %120 to i64
  %122 = getelementptr inbounds [10 x i16], ptr %119, i64 0, i64 %121
  store i16 %117, ptr %122, align 2
  br label %123

123:                                              ; preds = %108
  %124 = load i32, ptr %6, align 4
  %125 = add i32 %124, 1
  store i32 %125, ptr %6, align 4
  br label %104, !llvm.loop !39

126:                                              ; preds = %104
  %127 = load ptr, ptr %5, align 8
  %128 = getelementptr inbounds %struct.CFF_PrivateRec_, ptr %127, i32 0, i32 8
  %129 = load i64, ptr %128, align 8
  %130 = load ptr, ptr %4, align 8
  %131 = getelementptr inbounds %struct.PS_PrivateRec_, ptr %130, i32 0, i32 10
  store i64 %129, ptr %131, align 8
  %132 = load ptr, ptr %5, align 8
  %133 = getelementptr inbounds %struct.CFF_PrivateRec_, ptr %132, i32 0, i32 9
  %134 = load i64, ptr %133, align 8
  %135 = trunc i64 %134 to i32
  %136 = load ptr, ptr %4, align 8
  %137 = getelementptr inbounds %struct.PS_PrivateRec_, ptr %136, i32 0, i32 11
  store i32 %135, ptr %137, align 8
  %138 = load ptr, ptr %5, align 8
  %139 = getelementptr inbounds %struct.CFF_PrivateRec_, ptr %138, i32 0, i32 10
  %140 = load i64, ptr %139, align 8
  %141 = trunc i64 %140 to i32
  %142 = load ptr, ptr %4, align 8
  %143 = getelementptr inbounds %struct.PS_PrivateRec_, ptr %142, i32 0, i32 12
  store i32 %141, ptr %143, align 4
  %144 = load ptr, ptr %5, align 8
  %145 = getelementptr inbounds %struct.CFF_PrivateRec_, ptr %144, i32 0, i32 11
  %146 = load i64, ptr %145, align 8
  %147 = trunc i64 %146 to i16
  %148 = load ptr, ptr %4, align 8
  %149 = getelementptr inbounds %struct.PS_PrivateRec_, ptr %148, i32 0, i32 13
  %150 = getelementptr inbounds [1 x i16], ptr %149, i64 0, i64 0
  store i16 %147, ptr %150, align 8
  %151 = load ptr, ptr %5, align 8
  %152 = getelementptr inbounds %struct.CFF_PrivateRec_, ptr %151, i32 0, i32 12
  %153 = load i64, ptr %152, align 8
  %154 = trunc i64 %153 to i16
  %155 = load ptr, ptr %4, align 8
  %156 = getelementptr inbounds %struct.PS_PrivateRec_, ptr %155, i32 0, i32 14
  %157 = getelementptr inbounds [1 x i16], ptr %156, i64 0, i64 0
  store i16 %154, ptr %157, align 2
  %158 = load ptr, ptr %5, align 8
  %159 = getelementptr inbounds %struct.CFF_PrivateRec_, ptr %158, i32 0, i32 13
  %160 = load i8, ptr %159, align 8
  %161 = load ptr, ptr %4, align 8
  %162 = getelementptr inbounds %struct.PS_PrivateRec_, ptr %161, i32 0, i32 15
  store i8 %160, ptr %162, align 4
  %163 = zext i8 %160 to i32
  store i32 %163, ptr %7, align 4
  store i32 0, ptr %6, align 4
  br label %164

164:                                              ; preds = %181, %126
  %165 = load i32, ptr %6, align 4
  %166 = load i32, ptr %7, align 4
  %167 = icmp ult i32 %165, %166
  br i1 %167, label %168, label %184

168:                                              ; preds = %164
  %169 = load ptr, ptr %5, align 8
  %170 = getelementptr inbounds %struct.CFF_PrivateRec_, ptr %169, i32 0, i32 15
  %171 = load i32, ptr %6, align 4
  %172 = zext i32 %171 to i64
  %173 = getelementptr inbounds [13 x i64], ptr %170, i64 0, i64 %172
  %174 = load i64, ptr %173, align 8
  %175 = trunc i64 %174 to i16
  %176 = load ptr, ptr %4, align 8
  %177 = getelementptr inbounds %struct.PS_PrivateRec_, ptr %176, i32 0, i32 19
  %178 = load i32, ptr %6, align 4
  %179 = zext i32 %178 to i64
  %180 = getelementptr inbounds [13 x i16], ptr %177, i64 0, i64 %179
  store i16 %175, ptr %180, align 2
  br label %181

181:                                              ; preds = %168
  %182 = load i32, ptr %6, align 4
  %183 = add i32 %182, 1
  store i32 %183, ptr %6, align 4
  br label %164, !llvm.loop !40

184:                                              ; preds = %164
  %185 = load ptr, ptr %5, align 8
  %186 = getelementptr inbounds %struct.CFF_PrivateRec_, ptr %185, i32 0, i32 14
  %187 = load i8, ptr %186, align 1
  %188 = load ptr, ptr %4, align 8
  %189 = getelementptr inbounds %struct.PS_PrivateRec_, ptr %188, i32 0, i32 16
  store i8 %187, ptr %189, align 1
  %190 = zext i8 %187 to i32
  store i32 %190, ptr %7, align 4
  store i32 0, ptr %6, align 4
  br label %191

191:                                              ; preds = %208, %184
  %192 = load i32, ptr %6, align 4
  %193 = load i32, ptr %7, align 4
  %194 = icmp ult i32 %192, %193
  br i1 %194, label %195, label %211

195:                                              ; preds = %191
  %196 = load ptr, ptr %5, align 8
  %197 = getelementptr inbounds %struct.CFF_PrivateRec_, ptr %196, i32 0, i32 16
  %198 = load i32, ptr %6, align 4
  %199 = zext i32 %198 to i64
  %200 = getelementptr inbounds [13 x i64], ptr %197, i64 0, i64 %199
  %201 = load i64, ptr %200, align 8
  %202 = trunc i64 %201 to i16
  %203 = load ptr, ptr %4, align 8
  %204 = getelementptr inbounds %struct.PS_PrivateRec_, ptr %203, i32 0, i32 20
  %205 = load i32, ptr %6, align 4
  %206 = zext i32 %205 to i64
  %207 = getelementptr inbounds [13 x i16], ptr %204, i64 0, i64 %206
  store i16 %202, ptr %207, align 2
  br label %208

208:                                              ; preds = %195
  %209 = load i32, ptr %6, align 4
  %210 = add i32 %209, 1
  store i32 %210, ptr %6, align 4
  br label %191, !llvm.loop !41

211:                                              ; preds = %191
  %212 = load ptr, ptr %5, align 8
  %213 = getelementptr inbounds %struct.CFF_PrivateRec_, ptr %212, i32 0, i32 17
  %214 = load i8, ptr %213, align 8
  %215 = load ptr, ptr %4, align 8
  %216 = getelementptr inbounds %struct.PS_PrivateRec_, ptr %215, i32 0, i32 17
  store i8 %214, ptr %216, align 2
  %217 = load ptr, ptr %5, align 8
  %218 = getelementptr inbounds %struct.CFF_PrivateRec_, ptr %217, i32 0, i32 20
  %219 = load i32, ptr %218, align 4
  %220 = sext i32 %219 to i64
  %221 = load ptr, ptr %4, align 8
  %222 = getelementptr inbounds %struct.PS_PrivateRec_, ptr %221, i32 0, i32 22
  store i64 %220, ptr %222, align 8
  %223 = load ptr, ptr %5, align 8
  %224 = getelementptr inbounds %struct.CFF_PrivateRec_, ptr %223, i32 0, i32 19
  %225 = load i32, ptr %224, align 8
  %226 = load ptr, ptr %4, align 8
  %227 = getelementptr inbounds %struct.PS_PrivateRec_, ptr %226, i32 0, i32 1
  store i32 %225, ptr %227, align 4
  ret void
}