; Function Attrs: nofree norecurse nosync nounwind memory(argmem: readwrite) uwtable
define internal fastcc void @cff_make_private_dict(ptr nocapture noundef readonly %0, ptr nocapture noundef writeonly %1) unnamed_addr #14 {
  %3 = getelementptr inbounds i8, ptr %0, i64 328
  tail call void @llvm.memset.p0.i64(ptr noundef nonnull align 8 dereferenceable(224) %1, i8 0, i64 224, i1 false)
  %4 = load i8, ptr %3, align 8
  %5 = getelementptr inbounds i8, ptr %1, i64 8
  store i8 %4, ptr %5, align 8
  %.not = icmp eq i8 %4, 0
  br i1 %.not, label %._crit_edge, label %.lr.ph

.lr.ph:                                           ; preds = %2
  %6 = getelementptr inbounds i8, ptr %0, i64 336
  %7 = getelementptr inbounds i8, ptr %1, i64 12
  %wide.trip.count = zext i8 %4 to i64
  br label %8

8:                                                ; preds = %.lr.ph, %8
  %indvars.iv = phi i64 [ 0, %.lr.ph ], [ %indvars.iv.next, %8 ]
  %9 = getelementptr inbounds [14 x i64], ptr %6, i64 0, i64 %indvars.iv
  %10 = load i64, ptr %9, align 8
  %11 = add nsw i64 %10, 32768
  %12 = lshr i64 %11, 16
  %13 = trunc i64 %12 to i16
  %14 = getelementptr inbounds [14 x i16], ptr %7, i64 0, i64 %indvars.iv
  store i16 %13, ptr %14, align 2
  %indvars.iv.next = add nuw nsw i64 %indvars.iv, 1
  %exitcond.not = icmp eq i64 %indvars.iv.next, %wide.trip.count
  br i1 %exitcond.not, label %._crit_edge, label %8, !llvm.loop !37

._crit_edge:                                      ; preds = %8, %2
  %15 = getelementptr inbounds i8, ptr %0, i64 329
  %16 = load i8, ptr %15, align 1
  %17 = getelementptr inbounds i8, ptr %1, i64 9
  store i8 %16, ptr %17, align 1
  %.not92 = icmp eq i8 %16, 0
  br i1 %.not92, label %._crit_edge75, label %.lr.ph74

.lr.ph74:                                         ; preds = %._crit_edge
  %18 = getelementptr inbounds i8, ptr %0, i64 448
  %19 = getelementptr inbounds i8, ptr %1, i64 40
  %wide.trip.count101 = zext i8 %16 to i64
  br label %20

20:                                               ; preds = %.lr.ph74, %20
  %indvars.iv98 = phi i64 [ 0, %.lr.ph74 ], [ %indvars.iv.next99, %20 ]
  %21 = getelementptr inbounds [10 x i64], ptr %18, i64 0, i64 %indvars.iv98
  %22 = load i64, ptr %21, align 8
  %23 = add nsw i64 %22, 32768
  %24 = lshr i64 %23, 16
  %25 = trunc i64 %24 to i16
  %26 = getelementptr inbounds [10 x i16], ptr %19, i64 0, i64 %indvars.iv98
  store i16 %25, ptr %26, align 2
  %indvars.iv.next99 = add nuw nsw i64 %indvars.iv98, 1
  %exitcond102.not = icmp eq i64 %indvars.iv.next99, %wide.trip.count101
  br i1 %exitcond102.not, label %._crit_edge75, label %20, !llvm.loop !38

._crit_edge75:                                    ; preds = %20, %._crit_edge
  %27 = getelementptr inbounds i8, ptr %0, i64 330
  %28 = load i8, ptr %27, align 2
  %29 = getelementptr inbounds i8, ptr %1, i64 10
  store i8 %28, ptr %29, align 2
  %.not93 = icmp eq i8 %28, 0
  br i1 %.not93, label %._crit_edge79, label %.lr.ph78

.lr.ph78:                                         ; preds = %._crit_edge75
  %30 = getelementptr inbounds i8, ptr %0, i64 528
  %31 = getelementptr inbounds i8, ptr %1, i64 60
  %wide.trip.count106 = zext i8 %28 to i64
  br label %32

32:                                               ; preds = %.lr.ph78, %32
  %indvars.iv103 = phi i64 [ 0, %.lr.ph78 ], [ %indvars.iv.next104, %32 ]
  %33 = getelementptr inbounds [14 x i64], ptr %30, i64 0, i64 %indvars.iv103
  %34 = load i64, ptr %33, align 8
  %35 = add nsw i64 %34, 32768
  %36 = lshr i64 %35, 16
  %37 = trunc i64 %36 to i16
  %38 = getelementptr inbounds [14 x i16], ptr %31, i64 0, i64 %indvars.iv103
  store i16 %37, ptr %38, align 2
  %indvars.iv.next104 = add nuw nsw i64 %indvars.iv103, 1
  %exitcond107.not = icmp eq i64 %indvars.iv.next104, %wide.trip.count106
  br i1 %exitcond107.not, label %._crit_edge79, label %32, !llvm.loop !39

._crit_edge79:                                    ; preds = %32, %._crit_edge75
  %39 = getelementptr inbounds i8, ptr %0, i64 331
  %40 = load i8, ptr %39, align 1
  %41 = getelementptr inbounds i8, ptr %1, i64 11
  store i8 %40, ptr %41, align 1
  %.not94 = icmp eq i8 %40, 0
  br i1 %.not94, label %._crit_edge83, label %.lr.ph82

.lr.ph82:                                         ; preds = %._crit_edge79
  %42 = getelementptr inbounds i8, ptr %0, i64 640
  %43 = getelementptr inbounds i8, ptr %1, i64 88
  %wide.trip.count111 = zext i8 %40 to i64
  br label %44

44:                                               ; preds = %.lr.ph82, %44
  %indvars.iv108 = phi i64 [ 0, %.lr.ph82 ], [ %indvars.iv.next109, %44 ]
  %45 = getelementptr inbounds [10 x i64], ptr %42, i64 0, i64 %indvars.iv108
  %46 = load i64, ptr %45, align 8
  %47 = add nsw i64 %46, 32768
  %48 = lshr i64 %47, 16
  %49 = trunc i64 %48 to i16
  %50 = getelementptr inbounds [10 x i16], ptr %43, i64 0, i64 %indvars.iv108
  store i16 %49, ptr %50, align 2
  %indvars.iv.next109 = add nuw nsw i64 %indvars.iv108, 1
  %exitcond112.not = icmp eq i64 %indvars.iv.next109, %wide.trip.count111
  br i1 %exitcond112.not, label %._crit_edge83, label %44, !llvm.loop !40

._crit_edge83:                                    ; preds = %44, %._crit_edge79
  %51 = getelementptr inbounds i8, ptr %0, i64 720
  %52 = load i64, ptr %51, align 8
  %53 = getelementptr inbounds i8, ptr %1, i64 112
  store i64 %52, ptr %53, align 8
  %54 = getelementptr inbounds i8, ptr %0, i64 728
  %55 = load i64, ptr %54, align 8
  %56 = trunc i64 %55 to i32
  %57 = getelementptr inbounds i8, ptr %1, i64 120
  store i32 %56, ptr %57, align 8
  %58 = getelementptr inbounds i8, ptr %0, i64 736
  %59 = load i64, ptr %58, align 8
  %60 = trunc i64 %59 to i32
  %61 = getelementptr inbounds i8, ptr %1, i64 124
  store i32 %60, ptr %61, align 4
  %62 = getelementptr inbounds i8, ptr %0, i64 744
  %63 = load i64, ptr %62, align 8
  %64 = trunc i64 %63 to i16
  %65 = getelementptr inbounds i8, ptr %1, i64 128
  store i16 %64, ptr %65, align 8
  %66 = getelementptr inbounds i8, ptr %0, i64 752
  %67 = load i64, ptr %66, align 8
  %68 = trunc i64 %67 to i16
  %69 = getelementptr inbounds i8, ptr %1, i64 130
  store i16 %68, ptr %69, align 2
  %70 = getelementptr inbounds i8, ptr %0, i64 760
  %71 = load i8, ptr %70, align 8
  %72 = getelementptr inbounds i8, ptr %1, i64 132
  store i8 %71, ptr %72, align 4
  %.not95 = icmp eq i8 %71, 0
  br i1 %.not95, label %._crit_edge87, label %.lr.ph86

.lr.ph86:                                         ; preds = %._crit_edge83
  %73 = getelementptr inbounds i8, ptr %0, i64 768
  %74 = getelementptr inbounds i8, ptr %1, i64 136
  %wide.trip.count116 = zext i8 %71 to i64
  br label %75

75:                                               ; preds = %.lr.ph86, %75
  %indvars.iv113 = phi i64 [ 0, %.lr.ph86 ], [ %indvars.iv.next114, %75 ]
  %76 = getelementptr inbounds [13 x i64], ptr %73, i64 0, i64 %indvars.iv113
  %77 = load i64, ptr %76, align 8
  %78 = trunc i64 %77 to i16
  %79 = getelementptr inbounds [13 x i16], ptr %74, i64 0, i64 %indvars.iv113
  store i16 %78, ptr %79, align 2
  %indvars.iv.next114 = add nuw nsw i64 %indvars.iv113, 1
  %exitcond117.not = icmp eq i64 %indvars.iv.next114, %wide.trip.count116
  br i1 %exitcond117.not, label %._crit_edge87, label %75, !llvm.loop !41

._crit_edge87:                                    ; preds = %75, %._crit_edge83
  %80 = getelementptr inbounds i8, ptr %0, i64 761
  %81 = load i8, ptr %80, align 1
  %82 = getelementptr inbounds i8, ptr %1, i64 133
  store i8 %81, ptr %82, align 1
  %.not96 = icmp eq i8 %81, 0
  br i1 %.not96, label %._crit_edge91, label %.lr.ph90

.lr.ph90:                                         ; preds = %._crit_edge87
  %83 = getelementptr inbounds i8, ptr %0, i64 872
  %84 = getelementptr inbounds i8, ptr %1, i64 162
  %wide.trip.count121 = zext i8 %81 to i64
  br label %85

85:                                               ; preds = %.lr.ph90, %85
  %indvars.iv118 = phi i64 [ 0, %.lr.ph90 ], [ %indvars.iv.next119, %85 ]
  %86 = getelementptr inbounds [13 x i64], ptr %83, i64 0, i64 %indvars.iv118
  %87 = load i64, ptr %86, align 8
  %88 = trunc i64 %87 to i16
  %89 = getelementptr inbounds [13 x i16], ptr %84, i64 0, i64 %indvars.iv118
  store i16 %88, ptr %89, align 2
  %indvars.iv.next119 = add nuw nsw i64 %indvars.iv118, 1
  %exitcond122.not = icmp eq i64 %indvars.iv.next119, %wide.trip.count121
  br i1 %exitcond122.not, label %._crit_edge91, label %85, !llvm.loop !42

._crit_edge91:                                    ; preds = %85, %._crit_edge87
  %90 = getelementptr inbounds i8, ptr %0, i64 976
  %91 = load i8, ptr %90, align 8
  %92 = getelementptr inbounds i8, ptr %1, i64 134
  store i8 %91, ptr %92, align 2
  %93 = getelementptr inbounds i8, ptr %0, i64 996
  %94 = load i32, ptr %93, align 4
  %95 = sext i32 %94 to i64
  %96 = getelementptr inbounds i8, ptr %1, i64 200
  store i64 %95, ptr %96, align 8
  %97 = getelementptr inbounds i8, ptr %0, i64 992
  %98 = load i32, ptr %97, align 8
  %99 = getelementptr inbounds i8, ptr %1, i64 4
  store i32 %98, ptr %99, align 4
  ret void
}